target datalayout = "e-m:e-p270:32:32-p271:32:32-p272:64:64-i64:64-i128:128-f80:128-n8:16:32:64-S128"
target triple = "x86_64-pc-linux-gnu"

%struct.redisObject = type { i32, i32, ptr }
%struct.RedisModuleDict = type { ptr }
%struct.sdshdr8 = type { i8, i8, i8, [0 x i8] }
%struct.sdshdr16 = type <{ i16, i16, i8, [0 x i8] }>
%struct.sdshdr32 = type <{ i32, i32, i8, [0 x i8] }>
%struct.sdshdr64 = type <{ i64, i64, i8, [0 x i8] }>
%struct.raxIterator = type { i32, ptr, ptr, ptr, i64, i64, [128 x i8], ptr, %struct.raxStack, ptr }
%struct.raxStack = type { ptr, i64, i64, [32 x ptr], i32 }
%struct.RedisModuleDictIter = type { ptr, %struct.raxIterator }

; Function Attrs: nounwind uwtable
define dso_local ptr @RM_DictIteratorStartC(ptr noundef %0, ptr noundef %1, ptr noundef %2, i64 noundef %3) #0 {
  %5 = alloca ptr, align 8
  %6 = alloca ptr, align 8
  %7 = alloca ptr, align 8
  %8 = alloca i64, align 8
  %9 = alloca ptr, align 8
  store ptr %0, ptr %5, align 8, !tbaa !294
  store ptr %1, ptr %6, align 8, !tbaa !11
  store ptr %2, ptr %7, align 8, !tbaa !9
  store i64 %3, ptr %8, align 8, !tbaa !5
  call void @llvm.lifetime.start.p0(i64 8, ptr %9) #15
  %10 = call noalias ptr @zmalloc(i64 noundef 488) #16
  store ptr %10, ptr %9, align 8, !tbaa !647
  %11 = load ptr, ptr %5, align 8, !tbaa !294
  %12 = load ptr, ptr %9, align 8, !tbaa !647
  %13 = getelementptr inbounds nuw %struct.RedisModuleDictIter, ptr %12, i32 0, i32 0
  store ptr %11, ptr %13, align 8, !tbaa !649
  %14 = load ptr, ptr %9, align 8, !tbaa !647
  %15 = getelementptr inbounds nuw %struct.RedisModuleDictIter, ptr %14, i32 0, i32 1
  %16 = load ptr, ptr %5, align 8, !tbaa !294
  %17 = getelementptr inbounds nuw %struct.RedisModuleDict, ptr %16, i32 0, i32 0
  %18 = load ptr, ptr %17, align 8, !tbaa !296
  call void @raxStart(ptr noundef %15, ptr noundef %18)
  %19 = load ptr, ptr %9, align 8, !tbaa !647
  %20 = getelementptr inbounds nuw %struct.RedisModuleDictIter, ptr %19, i32 0, i32 1
  %21 = load ptr, ptr %6, align 8, !tbaa !11
  %22 = load ptr, ptr %7, align 8, !tbaa !9
  %23 = load i64, ptr %8, align 8, !tbaa !5
  %24 = call i32 @raxSeek(ptr noundef %20, ptr noundef %21, ptr noundef %22, i64 noundef %23)
  %25 = load ptr, ptr %9, align 8, !tbaa !647
  call void @llvm.lifetime.end.p0(i64 8, ptr %9) #15
  ret ptr %25
}

; Function Attrs: inlinehint nounwind uwtable
define internal i64 @sdslen(ptr noundef %0) #10 {
  %2 = alloca i64, align 8
  %3 = alloca ptr, align 8
  %4 = alloca i8, align 1
  %5 = alloca i32, align 4
  store ptr %0, ptr %3, align 8, !tbaa !11
  call void @llvm.lifetime.start.p0(i64 1, ptr %4) #15
  %6 = load ptr, ptr %3, align 8, !tbaa !11
  %7 = getelementptr inbounds i8, ptr %6, i64 -1
  %8 = load i8, ptr %7, align 1, !tbaa !72
  store i8 %8, ptr %4, align 1, !tbaa !72
  %9 = load i8, ptr %4, align 1, !tbaa !72
  %10 = zext i8 %9 to i32
  %11 = and i32 %10, 7
  switch i32 %11, label %40 [
    i32 0, label %12
    i32 1, label %17
    i32 2, label %23
    i32 3, label %29
    i32 4, label %35
  ]

12:                                               ; preds = %1
  %13 = load i8, ptr %4, align 1, !tbaa !72
  %14 = zext i8 %13 to i32
  %15 = ashr i32 %14, 3
  %16 = sext i32 %15 to i64
  store i64 %16, ptr %2, align 8
  store i32 1, ptr %5, align 4
  br label %41

17:                                               ; preds = %1
  %18 = load ptr, ptr %3, align 8, !tbaa !11
  %19 = getelementptr inbounds i8, ptr %18, i64 -3
  %20 = getelementptr inbounds nuw %struct.sdshdr8, ptr %19, i32 0, i32 0
  %21 = load i8, ptr %20, align 1, !tbaa !72
  %22 = zext i8 %21 to i64
  store i64 %22, ptr %2, align 8
  store i32 1, ptr %5, align 4
  br label %41

23:                                               ; preds = %1
  %24 = load ptr, ptr %3, align 8, !tbaa !11
  %25 = getelementptr inbounds i8, ptr %24, i64 -5
  %26 = getelementptr inbounds nuw %struct.sdshdr16, ptr %25, i32 0, i32 0
  %27 = load i16, ptr %26, align 1, !tbaa !314
  %28 = zext i16 %27 to i64
  store i64 %28, ptr %2, align 8
  store i32 1, ptr %5, align 4
  br label %41

29:                                               ; preds = %1
  %30 = load ptr, ptr %3, align 8, !tbaa !11
  %31 = getelementptr inbounds i8, ptr %30, i64 -9
  %32 = getelementptr inbounds nuw %struct.sdshdr32, ptr %31, i32 0, i32 0
  %33 = load i32, ptr %32, align 1, !tbaa !29
  %34 = zext i32 %33 to i64
  store i64 %34, ptr %2, align 8
  store i32 1, ptr %5, align 4
  br label %41

35:                                               ; preds = %1
  %36 = load ptr, ptr %3, align 8, !tbaa !11
  %37 = getelementptr inbounds i8, ptr %36, i64 -17
  %38 = getelementptr inbounds nuw %struct.sdshdr64, ptr %37, i32 0, i32 0
  %39 = load i64, ptr %38, align 1, !tbaa !5
  store i64 %39, ptr %2, align 8
  store i32 1, ptr %5, align 4
  br label %41

40:                                               ; preds = %1
  store i64 0, ptr %2, align 8
  store i32 1, ptr %5, align 4
  br label %41

41:                                               ; preds = %40, %35, %29, %23, %17, %12
  call void @llvm.lifetime.end.p0(i64 1, ptr %4) #15
  %42 = load i64, ptr %2, align 8
  ret i64 %42
}

; Function Attrs: nounwind uwtable
define dso_local ptr @RM_DictIteratorStart(ptr noundef %0, ptr noundef %1, ptr noundef %2) #0 {
  %4 = alloca ptr, align 8
  %5 = alloca ptr, align 8
  %6 = alloca ptr, align 8
  store ptr %0, ptr %4, align 8, !tbaa !294
  store ptr %1, ptr %5, align 8, !tbaa !11
  store ptr %2, ptr %6, align 8, !tbaa !69
  %7 = load ptr, ptr %4, align 8, !tbaa !294
  %8 = load ptr, ptr %5, align 8, !tbaa !11
  %9 = load ptr, ptr %6, align 8, !tbaa !69
  %10 = getelementptr inbounds nuw %struct.redisObject, ptr %9, i32 0, i32 2
  %11 = load ptr, ptr %10, align 8, !tbaa !313
  %12 = load ptr, ptr %6, align 8, !tbaa !69
  %13 = getelementptr inbounds nuw %struct.redisObject, ptr %12, i32 0, i32 2
  %14 = load ptr, ptr %13, align 8, !tbaa !313
  %15 = call i64 @sdslen(ptr noundef %14)
  %16 = call ptr @RM_DictIteratorStartC(ptr noundef %7, ptr noundef %8, ptr noundef %11, i64 noundef %15)
  ret ptr %16
}