; Function Attrs: nounwind uwtable
define dso_local noundef ptr @RM_DictIteratorStart(ptr noundef %0, ptr noundef %1, ptr noundef readonly captures(none) %2) #0 {
  %4 = getelementptr inbounds nuw i8, ptr %2, i64 8
  %5 = load ptr, ptr %4, align 8, !tbaa !269
  %6 = getelementptr inbounds i8, ptr %5, i64 -1
  %7 = load i8, ptr %6, align 1, !tbaa !60
  %8 = zext i8 %7 to i32
  %9 = and i32 %8, 7
  switch i32 %9, label %sdslen.exit [
    i32 0, label %10
    i32 1, label %13
    i32 2, label %17
    i32 3, label %21
    i32 4, label %25
  ]

10:                                               ; preds = %3
  %11 = lshr i32 %8, 3
  %12 = zext nneg i32 %11 to i64
  br label %sdslen.exit

13:                                               ; preds = %3
  %14 = getelementptr inbounds i8, ptr %5, i64 -3
  %15 = load i8, ptr %14, align 1, !tbaa !60
  %16 = zext i8 %15 to i64
  br label %sdslen.exit

17:                                               ; preds = %3
  %18 = getelementptr inbounds i8, ptr %5, i64 -5
  %19 = load i16, ptr %18, align 1, !tbaa !270
  %20 = zext i16 %19 to i64
  br label %sdslen.exit

21:                                               ; preds = %3
  %22 = getelementptr inbounds i8, ptr %5, i64 -9
  %23 = load i32, ptr %22, align 1, !tbaa !22
  %24 = zext i32 %23 to i64
  br label %sdslen.exit

25:                                               ; preds = %3
  %26 = getelementptr inbounds i8, ptr %5, i64 -17
  %27 = load i64, ptr %26, align 1, !tbaa !24
  br label %sdslen.exit

sdslen.exit:                                      ; preds = %3, %10, %13, %17, %21, %25
  %.0.i = phi i64 [ %27, %25 ], [ %24, %21 ], [ %20, %17 ], [ %16, %13 ], [ %12, %10 ], [ 0, %3 ]
  %28 = tail call noalias dereferenceable_or_null(488) ptr @zmalloc(i64 noundef 488) #36
  store ptr %0, ptr %28, align 8, !tbaa !549
  %29 = getelementptr inbounds nuw i8, ptr %28, i64 8
  %30 = load ptr, ptr %0, align 8, !tbaa !105
  tail call void @raxStart(ptr noundef nonnull %29, ptr noundef %30) #35
  %31 = tail call i32 @raxSeek(ptr noundef nonnull %29, ptr noundef %1, ptr noundef nonnull %5, i64 noundef %.0.i) #35
  ret ptr %28
}